(dp1
V\u6b66\u5f53
p2
(lp3
S'202cb962ac59075b964b07152d234b70'
p4
aS'058715e38eb75f7b57bc825fe7c33a6c'
p5
asV159
p6
(lp7
S'140f6969d5213fd0ece03148e62e461e'
p8
aS'140f6969d5213fd0ece03148e62e461e'
p9
asV789
p10
(lp11
S'68053af2923e00204c3ca7c6a3150cf7'
p12
aS'68053af2923e00204c3ca7c6a3150cf7'
p13
asV456
p14
(lp15
S'250cf8b51c773f3f8dc8b4be867a9a02'
p16
aS'250cf8b51c773f3f8dc8b4be867a9a02'
p17
asV123
p18
(lp19
S'202cb962ac59075b964b07152d234b70'
p20
aS'202cb962ac59075b964b07152d234b70'
p21
asV\u65e5\u5e38
p22
(lp23
S'202cb962ac59075b964b07152d234b70'
p24
aS'943e6d3324693188a3f1955a7f921a69'
p25
as.