(dp1
V234
p2
(lp3
S'289dff07669d7a23de0ef88d2f7129e7'
p4
aS'289dff07669d7a23de0ef88d2f7129e7'
p5
asV1234
p6
(lp7
S'81dc9bdb52d04dc20036dbd8313ed055'
p8
aS'81dc9bdb52d04dc20036dbd8313ed055'
p9
asVqwe
p10
(lp11
S'76d80224611fc919a5d54f0ff9fba446'
p12
aS'76d80224611fc919a5d54f0ff9fba446'
p13
asV123
p14
(lp15
S'202cb962ac59075b964b07152d234b70'
p16
aS'202cb962ac59075b964b07152d234b70'
p17
as.