(dp1
V1234
p2
(lp3
S'81dc9bdb52d04dc20036dbd8313ed055'
p4
aS'81dc9bdb52d04dc20036dbd8313ed055'
p5
asVqwe
p6
(lp7
S'76d80224611fc919a5d54f0ff9fba446'
p8
aS'76d80224611fc919a5d54f0ff9fba446'
p9
asV123
p10
(lp11
S'202cb962ac59075b964b07152d234b70'
p12
aS'202cb962ac59075b964b07152d234b70'
p13
as.